target datalayout = "e-m:e-p270:32:32-p271:32:32-p272:64:64-i64:64-i128:128-f80:128-n8:16:32:64-S128"
target triple = "x86_64-pc-linux-gnu"

%struct.TIFFDirEntry = type { i16, i16, i32, i32 }

@_ZZN11OpenImageIO6v3_1_014tiff_data_sizeE12TIFFDataTypeE5sizes = internal global [14 x i64] [i64 0, i64 1, i64 1, i64 2, i64 4, i64 8, i64 1, i64 1, i64 2, i64 4, i64 8, i64 4, i64 8, i64 4], align 16

; Function Attrs: alwaysinline mustprogress nounwind uwtable
define linkonce_odr hidden noundef i32 @_ZN11OpenImageIO6v3_1_07bitcastIi12TIFFDataTypeEET_RKT0_(ptr noundef nonnull align 4 dereferenceable(4) %0) #10 comdat {
  %2 = alloca ptr, align 8
  %3 = alloca i32, align 4
  store ptr %0, ptr %2, align 8, !tbaa !67
  call void @llvm.lifetime.start.p0(i64 4, ptr %3) #3
  %4 = load ptr, ptr %2, align 8, !tbaa !67
  call void @llvm.memcpy.p0.p0.i64(ptr align 1 %3, ptr align 4 %4, i64 4, i1 false)
  %5 = load i32, ptr %3, align 4, !tbaa !32
  call void @llvm.lifetime.end.p0(i64 4, ptr %3) #3
  ret i32 %5
}

; Function Attrs: mustprogress nounwind uwtable
define noundef i64 @_ZN11OpenImageIO6v3_1_014tiff_data_sizeE12TIFFDataType(i32 noundef %0) #7 {
  %2 = alloca i64, align 8
  %3 = alloca i32, align 4
  %4 = alloca i32, align 4
  %5 = alloca i32, align 4
  %6 = alloca i32, align 4
  store i32 %0, ptr %3, align 4, !tbaa !66
  call void @llvm.lifetime.start.p0(i64 4, ptr %4) #3
  store i32 14, ptr %4, align 4, !tbaa !32
  call void @llvm.lifetime.start.p0(i64 4, ptr %5) #3
  %7 = call noundef i32 @_ZN11OpenImageIO6v3_1_07bitcastIi12TIFFDataTypeEET_RKT0_(ptr noundef nonnull align 4 dereferenceable(4) %3) #3
  store i32 %7, ptr %5, align 4, !tbaa !32
  %8 = load i32, ptr %5, align 4, !tbaa !32
  %9 = icmp slt i32 %8, 0
  br i1 %9, label %13, label %10

10:                                               ; preds = %1
  %11 = load i32, ptr %5, align 4, !tbaa !32
  %12 = icmp sge i32 %11, 14
  br i1 %12, label %13, label %14

13:                                               ; preds = %10, %1
  store i64 -1, ptr %2, align 8
  store i32 1, ptr %6, align 4
  br label %19

14:                                               ; preds = %10
  %15 = load i32, ptr %5, align 4, !tbaa !32
  %16 = sext i32 %15 to i64
  %17 = getelementptr inbounds [14 x i64], ptr @_ZZN11OpenImageIO6v3_1_014tiff_data_sizeE12TIFFDataTypeE5sizes, i64 0, i64 %16
  %18 = load i64, ptr %17, align 8, !tbaa !13
  store i64 %18, ptr %2, align 8
  store i32 1, ptr %6, align 4
  br label %19

19:                                               ; preds = %14, %13
  call void @llvm.lifetime.end.p0(i64 4, ptr %5) #3
  call void @llvm.lifetime.end.p0(i64 4, ptr %4) #3
  %20 = load i64, ptr %2, align 8
  ret i64 %20
}

; Function Attrs: mustprogress nounwind uwtable
define noundef i64 @_ZN11OpenImageIO6v3_1_014tiff_data_sizeERK12TIFFDirEntry(ptr noundef nonnull align 4 dereferenceable(12) %0) #7 {
  %2 = alloca ptr, align 8
  store ptr %0, ptr %2, align 8, !tbaa !68
  %3 = load ptr, ptr %2, align 8, !tbaa !68
  %4 = getelementptr inbounds nuw %struct.TIFFDirEntry, ptr %3, i32 0, i32 1
  %5 = load i16, ptr %4, align 2, !tbaa !70
  %6 = zext i16 %5 to i32
  %7 = call noundef i64 @_ZN11OpenImageIO6v3_1_014tiff_data_sizeE12TIFFDataType(i32 noundef %6)
  %8 = load ptr, ptr %2, align 8, !tbaa !68
  %9 = getelementptr inbounds nuw %struct.TIFFDirEntry, ptr %8, i32 0, i32 2
  %10 = load i32, ptr %9, align 4, !tbaa !73
  %11 = zext i32 %10 to i64
  %12 = mul i64 %7, %11
  ret i64 %12
}