; Function Attrs: mustprogress nofree norecurse nosync nounwind willreturn memory(argmem: read) uwtable
define noundef i64 @_ZN11OpenImageIO6v3_1_014tiff_data_sizeERK12TIFFDirEntry(ptr noundef nonnull readonly align 4 captures(none) dereferenceable(12) %0) local_unnamed_addr #12 {
  %2 = getelementptr inbounds nuw i8, ptr %0, i64 2
  %3 = load i16, ptr %2, align 2, !tbaa !86
  %or.cond.i = icmp ugt i16 %3, 13
  br i1 %or.cond.i, label %_ZN11OpenImageIO6v3_1_014tiff_data_sizeE12TIFFDataType.exit, label %4

4:                                                ; preds = %1
  %5 = zext nneg i16 %3 to i64
  %6 = getelementptr inbounds nuw [14 x i64], ptr @_ZZN11OpenImageIO6v3_1_014tiff_data_sizeE12TIFFDataTypeE5sizes, i64 0, i64 %5
  %7 = load i64, ptr %6, align 8, !tbaa !52
  br label %_ZN11OpenImageIO6v3_1_014tiff_data_sizeE12TIFFDataType.exit

_ZN11OpenImageIO6v3_1_014tiff_data_sizeE12TIFFDataType.exit: ; preds = %1, %4
  %.0.i = phi i64 [ %7, %4 ], [ -1, %1 ]
  %8 = getelementptr inbounds nuw i8, ptr %0, i64 4
  %9 = load i32, ptr %8, align 4, !tbaa !88
  %10 = zext i32 %9 to i64
  %11 = mul i64 %.0.i, %10
  ret i64 %11
}